; Function Attrs: nounwind uwtable
define ptr @l_Lean_Elab_WF_packCalls___lambda__6(ptr noundef %0, ptr noundef %1, ptr noundef %2, ptr noundef %3, ptr noundef %4, ptr noundef %5, ptr noundef readnone captures(none) %6, ptr noundef %7, ptr noundef %8, ptr noundef %9, ptr noundef %10, ptr noundef %11) local_unnamed_addr #0 {
  %13 = tail call ptr @l_Lean_Expr_bindingDomain_x21(ptr noundef %0) #5
  tail call void @lean_inc_heartbeat() #5
  %14 = tail call noalias ptr @mi_malloc_small(i64 noundef 64) #5
  %15 = icmp eq ptr %14, null
  br i1 %15, label %16, label %lean_alloc_closure.exit

16:                                               ; preds = %12
  tail call void @lean_internal_panic_out_of_memory() #6
  unreachable

lean_alloc_closure.exit:                          ; preds = %12
  %17 = getelementptr inbounds nuw i8, ptr %14, i64 4
  store i32 1, ptr %14, align 4, !tbaa !4
  store i32 -184549312, ptr %17, align 4
  %18 = getelementptr inbounds nuw i8, ptr %14, i64 8
  store ptr @l_Lean_Elab_WF_packCalls___lambda__5___boxed, ptr %18, align 8, !tbaa !10
  %19 = getelementptr inbounds nuw i8, ptr %14, i64 16
  store i16 11, ptr %19, align 8, !tbaa !15
  %20 = getelementptr inbounds nuw i8, ptr %14, i64 18
  store i16 5, ptr %20, align 2, !tbaa !15
  %21 = getelementptr inbounds nuw i8, ptr %14, i64 24
  store ptr %1, ptr %21, align 8, !tbaa !10
  %22 = getelementptr inbounds nuw i8, ptr %14, i64 32
  store ptr %2, ptr %22, align 8, !tbaa !10
  %23 = getelementptr inbounds nuw i8, ptr %14, i64 40
  store ptr %3, ptr %23, align 8, !tbaa !10
  %24 = getelementptr inbounds nuw i8, ptr %14, i64 48
  store ptr %13, ptr %24, align 8, !tbaa !10
  %25 = getelementptr inbounds nuw i8, ptr %14, i64 56
  store ptr %4, ptr %25, align 8, !tbaa !10
  %26 = load ptr, ptr @l_Lean_Elab_WF_packCalls___lambda__6___closed__1, align 8, !tbaa !10
  %27 = tail call ptr @l_Lean_Meta_transform___at_Lean_Meta_zetaReduce___spec__1(ptr noundef %5, ptr noundef %26, ptr noundef nonnull %14, i8 noundef zeroext 0, i8 noundef zeroext 1, ptr noundef %7, ptr noundef %8, ptr noundef %9, ptr noundef %10, ptr noundef %11) #5
  ret ptr %27
}